target datalayout = "e-m:e-p270:32:32-p271:32:32-p272:64:64-i64:64-i128:128-f80:128-n8:16:32:64-S128"
target triple = "x86_64-pc-linux-gnu"

%struct.expert_field = type { i32, i32 }
%struct.ieee80211_tagged_field_data = type { i32, ptr, i8, ptr, ptr }

@ei_ieee80211_tag_length = internal global %struct.expert_field zeroinitializer, align 4
@hf_ieee80211_tag_20_40_bc = internal global i32 0, align 4
@ett_tag_20_40_bc = internal global i32 0, align 4
@.str.10155 = private unnamed_addr constant [48 x i8] c"20/40 BSS Coexistence length %u wrong, must = 1\00", align 1

; Function Attrs: null_pointer_is_valid sspstrong uwtable
define internal i32 @dissect_20_40_bss_coexistence(ptr noundef %0, ptr noundef %1, ptr noundef %2, ptr noundef %3) #1 {
  %5 = alloca i32, align 4
  %6 = alloca ptr, align 8
  %7 = alloca ptr, align 8
  %8 = alloca ptr, align 8
  %9 = alloca ptr, align 8
  %10 = alloca i32, align 4
  %11 = alloca ptr, align 8
  %12 = alloca i32, align 4
  %13 = alloca i32, align 4
  store ptr %0, ptr %6, align 8
  store ptr %1, ptr %7, align 8
  store ptr %2, ptr %8, align 8
  store ptr %3, ptr %9, align 8
  call void @llvm.lifetime.start.p0(i64 4, ptr %10) #19
  %14 = load ptr, ptr %6, align 8
  %15 = call i32 @tvb_reported_length(ptr noundef %14)
  store i32 %15, ptr %10, align 4
  call void @llvm.lifetime.start.p0(i64 8, ptr %11) #19
  %16 = load ptr, ptr %9, align 8
  store ptr %16, ptr %11, align 8
  call void @llvm.lifetime.start.p0(i64 4, ptr %12) #19
  store i32 0, ptr %12, align 4
  %17 = load i32, ptr %10, align 4
  %18 = icmp ne i32 %17, 1
  br i1 %18, label %19, label %26

19:                                               ; preds = %4
  %20 = load ptr, ptr %7, align 8
  %21 = load ptr, ptr %11, align 8
  %22 = getelementptr inbounds nuw %struct.ieee80211_tagged_field_data, ptr %21, i32 0, i32 4
  %23 = load ptr, ptr %22, align 8
  %24 = load i32, ptr %10, align 4
  %25 = call ptr (ptr, ptr, ptr, ptr, ...) @expert_add_info_format(ptr noundef %20, ptr noundef %23, ptr noundef @ei_ieee80211_tag_length, ptr noundef @.str.10155, i32 noundef %24)
  store i32 1, ptr %5, align 4
  store i32 1, ptr %13, align 4
  br label %36

26:                                               ; preds = %4
  %27 = load ptr, ptr %8, align 8
  %28 = load ptr, ptr %6, align 8
  %29 = load i32, ptr %12, align 4
  %30 = load i32, ptr @hf_ieee80211_tag_20_40_bc, align 4
  %31 = load i32, ptr @ett_tag_20_40_bc, align 4
  %32 = call ptr @proto_tree_add_bitmask_with_flags(ptr noundef %27, ptr noundef %28, i32 noundef %29, i32 noundef %30, i32 noundef %31, ptr noundef @dissect_20_40_bss_coexistence.ieee80211_20_40_bss_coexistence_fields, i32 noundef -2147483648, i32 noundef 1)
  %33 = load i32, ptr %12, align 4
  %34 = add i32 %33, 1
  store i32 %34, ptr %12, align 4
  %35 = load i32, ptr %12, align 4
  store i32 %35, ptr %5, align 4
  store i32 1, ptr %13, align 4
  br label %36

36:                                               ; preds = %26, %19
  call void @llvm.lifetime.end.p0(i64 4, ptr %12) #19
  call void @llvm.lifetime.end.p0(i64 8, ptr %11) #19
  call void @llvm.lifetime.end.p0(i64 4, ptr %10) #19
  %37 = load i32, ptr %5, align 4
  ret i32 %37
}