; Function Attrs: null_pointer_is_valid sspstrong uwtable
define internal noundef i32 @dissect_20_40_bss_coexistence(ptr noundef %0, ptr noundef %1, ptr noundef %2, ptr noundef readonly captures(none) %3) #2 {
  %5 = tail call i32 @tvb_reported_length(ptr noundef %0)
  %.not = icmp eq i32 %5, 1
  br i1 %.not, label %10, label %6

6:                                                ; preds = %4
  %7 = getelementptr inbounds nuw i8, ptr %3, i64 32
  %8 = load ptr, ptr %7, align 8
  %9 = tail call ptr (ptr, ptr, ptr, ptr, ...) @expert_add_info_format(ptr noundef %1, ptr noundef %8, ptr noundef nonnull @ei_ieee80211_tag_length, ptr noundef nonnull @.str.10155, i32 noundef %5)
  br label %14

10:                                               ; preds = %4
  %11 = load i32, ptr @hf_ieee80211_tag_20_40_bc, align 4
  %12 = load i32, ptr @ett_tag_20_40_bc, align 4
  %13 = tail call ptr @proto_tree_add_bitmask_with_flags(ptr noundef %2, ptr noundef %0, i32 noundef 0, i32 noundef %11, i32 noundef %12, ptr noundef nonnull @dissect_20_40_bss_coexistence.ieee80211_20_40_bss_coexistence_fields, i32 noundef -2147483648, i32 noundef 1)
  br label %14

14:                                               ; preds = %10, %6
  ret i32 1
}